target datalayout = "e-m:e-p270:32:32-p271:32:32-p272:64:64-i64:64-i128:128-f80:128-n8:16:32:64-S128"
target triple = "x86_64-pc-linux-gnu"

%"struct.Type::TypeInfo" = type { i32, i8, ptr, i8, i32, i32 }
%class.Node = type <{ ptr, ptr, ptr, i32, i32, i32, i32, i32, i32, i32, [4 x i8] }>
%class.VectorSet = type { i32, ptr, i32, ptr }
%class.Phase = type { i32, ptr }
%class.PhaseValues = type { %class.PhaseTransform, i8, ptr, ptr, [137 x ptr], [137 x ptr], [20 x ptr] }
%class.PhaseTransform = type { ptr, %class.Phase }
%class.GrowableArrayBase = type { i32, i32 }
%class.GrowableArrayMetadata = type { i64 }
%class.Compile = type <{ %class.Phase, i32, %class.Options, [4 x i8], ptr, i32, [4 x i8], ptr, ptr, ptr, ptr, ptr, i32, i32, i32, [4 x i8], i64, i8, i8, [2 x i8], i32, i8, i8, i8, i8, i8, i8, i8, i8, i8, [3 x i8], i32, i8, [3 x i8], [30 x i32], i8, [3 x i8], i32, i8, i8, i8, i8, i8, i8, i8, i8, i8, i8, i8, i8, i8, [3 x i8], i32, i32, [4 x i8], %class.Arena, ptr, ptr, ptr, ptr, %class.CHeapStringHolder, ptr, %class.GrowableArray, %class.GrowableArray.0, %class.GrowableArray.3, %class.GrowableArray.0, %class.GrowableArray.0, %class.GrowableArray.0, %class.GrowableArray.6, %class.GrowableArray.9, ptr, i32, i32, %class.VectorSet, %class.Arena, %class.Arena, ptr, ptr, ptr, ptr, ptr, ptr, ptr, ptr, ptr, %class.Arena, ptr, ptr, %class.CloneMap, i64, ptr, ptr, ptr, i32, i32, [64 x %"struct.Compile::AliasCacheEntry"], ptr, ptr, ptr, ptr, %class.GrowableArray, %class.GrowableArray, %class.GrowableArray, %class.GrowableArray, i32, i32, i8, [7 x i8], ptr, ptr, i32, [4 x i8], ptr, ptr, ptr, i32, i32, ptr, ptr, %class.RegMask, ptr, ptr, i32, [4 x i8], ptr, %class.TimeInstant, i32, [4 x i8] }>
%class.Options = type { i8, i8, i8, i8, i8, i8, i8, i8 }
%class.CHeapStringHolder = type { ptr }
%class.GrowableArray.3 = type { %class.GrowableArrayWithAllocator.4, %class.GrowableArrayMetadata }
%class.GrowableArrayWithAllocator.4 = type { %class.GrowableArrayView.5 }
%class.GrowableArrayView.5 = type { %class.GrowableArrayBase, ptr }
%class.GrowableArray.0 = type { %class.GrowableArrayWithAllocator.1, %class.GrowableArrayMetadata }
%class.GrowableArrayWithAllocator.1 = type { %class.GrowableArrayView.2 }
%class.GrowableArrayView.2 = type { %class.GrowableArrayBase, ptr }
%class.GrowableArray.6 = type { %class.GrowableArrayWithAllocator.7, %class.GrowableArrayMetadata }
%class.GrowableArrayWithAllocator.7 = type { %class.GrowableArrayView.8 }
%class.GrowableArrayView.8 = type { %class.GrowableArrayBase, ptr }
%class.GrowableArray.9 = type { %class.GrowableArrayWithAllocator.10, %class.GrowableArrayMetadata }
%class.GrowableArrayWithAllocator.10 = type { %class.GrowableArrayView.11 }
%class.GrowableArrayView.11 = type { %class.GrowableArrayBase, ptr }
%class.Arena = type { i8, i8, i64, ptr, ptr, ptr, ptr }
%class.CloneMap = type <{ i8, [7 x i8], ptr, i32, [4 x i8] }>
%"struct.Compile::AliasCacheEntry" = type { ptr, i32 }
%class.GrowableArray = type { %class.GrowableArrayWithAllocator, %class.GrowableArrayMetadata }
%class.GrowableArrayWithAllocator = type { %class.GrowableArrayView }
%class.GrowableArrayView = type { %class.GrowableArrayBase, ptr }
%class.RegMask = type { %union.anon, i32, i32 }
%union.anon = type { [11 x i64] }
%class.TimeInstant = type { %class.CompositeCounterRepresentation }
%class.CompositeCounterRepresentation = type { %class.Representation }
%class.Representation = type { %class.PairRep }
%class.PairRep = type { i64, i64 }
%class.Type = type <{ ptr, ptr, i32, [4 x i8] }>
%class.Type.base = type <{ ptr, ptr, i32 }>
%class.TypeInt = type { %class.TypeInteger.base, i32, i32 }
%class.TypeInteger.base = type { %class.Type.base, i16 }
%class.TypeLong = type { %class.TypeInteger.base, i64, i64 }

@_ZN4Type10_zero_typeE = external global [20 x ptr], align 16
@_ZN4Type10_type_infoE = external global [0 x %"struct.Type::TypeInfo"], align 8

; Function Attrs: mustprogress nounwind uwtable
define linkonce_odr hidden noundef ptr @_ZN4Type13get_zero_typeE9BasicType(i8 noundef zeroext %0) #1 comdat align 2 {
  %2 = alloca i8, align 1
  store i8 %0, ptr %2, align 1
  %3 = load i8, ptr %2, align 1
  %4 = zext i8 %3 to i64
  %5 = getelementptr inbounds [20 x ptr], ptr @_ZN4Type10_zero_typeE, i64 0, i64 %4
  %6 = load ptr, ptr %5, align 8
  ret ptr %6
}

; Function Attrs: mustprogress nounwind uwtable
define linkonce_odr hidden noundef ptr @_ZNK4Node2inEj(ptr noundef nonnull align 8 dereferenceable(52) %0, i32 noundef %1) #1 comdat align 2 {
  %3 = alloca ptr, align 8
  %4 = alloca i32, align 4
  store ptr %0, ptr %3, align 8
  store i32 %1, ptr %4, align 4
  %5 = load ptr, ptr %3, align 8
  %6 = getelementptr inbounds %class.Node, ptr %5, i32 0, i32 1
  %7 = load ptr, ptr %6, align 8
  %8 = load i32, ptr %4, align 4
  %9 = zext i32 %8 to i64
  %10 = getelementptr inbounds ptr, ptr %7, i64 %9
  %11 = load ptr, ptr %10, align 8
  ret ptr %11
}

; Function Attrs: mustprogress nounwind uwtable
define hidden noundef ptr @_ZN11PhaseValues7zeroconE9BasicType(ptr noundef nonnull align 8 dereferenceable(2400) %0, i8 noundef zeroext %1) #1 align 2 {
  %3 = alloca ptr, align 8
  %4 = alloca ptr, align 8
  %5 = alloca i8, align 1
  %6 = alloca ptr, align 8
  store ptr %0, ptr %4, align 8
  store i8 %1, ptr %5, align 1
  %7 = load ptr, ptr %4, align 8
  %8 = getelementptr inbounds %class.PhaseValues, ptr %7, i32 0, i32 6
  %9 = load i8, ptr %5, align 1
  %10 = zext i8 %9 to i64
  %11 = getelementptr inbounds [20 x ptr], ptr %8, i64 0, i64 %10
  %12 = load ptr, ptr %11, align 8
  store ptr %12, ptr %6, align 8
  %13 = load ptr, ptr %6, align 8
  %14 = icmp ne ptr %13, null
  br i1 %14, label %15, label %21

15:                                               ; preds = %2
  %16 = load ptr, ptr %6, align 8
  %17 = call noundef ptr @_ZNK4Node2inEj(ptr noundef nonnull align 8 dereferenceable(52) %16, i32 noundef 0)
  %18 = icmp ne ptr %17, null
  br i1 %18, label %19, label %21

19:                                               ; preds = %15
  %20 = load ptr, ptr %6, align 8
  store ptr %20, ptr %3, align 8
  br label %31

21:                                               ; preds = %15, %2
  %22 = load i8, ptr %5, align 1
  %23 = call noundef ptr @_ZN4Type13get_zero_typeE9BasicType(i8 noundef zeroext %22)
  %24 = call noundef ptr @_ZN11PhaseValues16uncached_makeconEPK4Type(ptr noundef nonnull align 8 dereferenceable(2400) %7, ptr noundef %23)
  store ptr %24, ptr %6, align 8
  %25 = load ptr, ptr %6, align 8
  %26 = getelementptr inbounds %class.PhaseValues, ptr %7, i32 0, i32 6
  %27 = load i8, ptr %5, align 1
  %28 = zext i8 %27 to i64
  %29 = getelementptr inbounds [20 x ptr], ptr %26, i64 0, i64 %28
  store ptr %25, ptr %29, align 8
  %30 = load ptr, ptr %6, align 8
  store ptr %30, ptr %3, align 8
  br label %31

31:                                               ; preds = %21, %19
  %32 = load ptr, ptr %3, align 8
  ret ptr %32
}

; Function Attrs: mustprogress nounwind uwtable
define linkonce_odr hidden noundef zeroext i8 @_ZNK4Type10basic_typeEv(ptr noundef nonnull align 8 dereferenceable(20) %0) #1 comdat align 2 {
  %2 = alloca ptr, align 8
  store ptr %0, ptr %2, align 8
  %3 = load ptr, ptr %2, align 8
  %4 = getelementptr inbounds %class.Type, ptr %3, i32 0, i32 2
  %5 = load i32, ptr %4, align 8
  %6 = zext i32 %5 to i64
  %7 = getelementptr inbounds [0 x %"struct.Type::TypeInfo"], ptr @_ZN4Type10_type_infoE, i64 0, i64 %6
  %8 = getelementptr inbounds %"struct.Type::TypeInfo", ptr %7, i32 0, i32 1
  %9 = load i8, ptr %8, align 4
  ret i8 %9
}

; Function Attrs: mustprogress nounwind uwtable
define linkonce_odr hidden noundef zeroext i1 @_ZNK4Type12is_zero_typeEv(ptr noundef nonnull align 8 dereferenceable(20) %0) #1 comdat align 2 {
  %2 = alloca i1, align 1
  %3 = alloca ptr, align 8
  %4 = alloca i8, align 1
  store ptr %0, ptr %3, align 8
  %5 = load ptr, ptr %3, align 8
  %6 = call noundef zeroext i8 @_ZNK4Type10basic_typeEv(ptr noundef nonnull align 8 dereferenceable(20) %5)
  store i8 %6, ptr %4, align 1
  %7 = load i8, ptr %4, align 1
  %8 = zext i8 %7 to i32
  %9 = icmp eq i32 %8, 14
  br i1 %9, label %14, label %10

10:                                               ; preds = %1
  %11 = load i8, ptr %4, align 1
  %12 = zext i8 %11 to i32
  %13 = icmp sge i32 %12, 19
  br i1 %13, label %14, label %15

14:                                               ; preds = %10, %1
  store i1 false, ptr %2, align 1
  br label %21

15:                                               ; preds = %10
  %16 = load i8, ptr %4, align 1
  %17 = zext i8 %16 to i64
  %18 = getelementptr inbounds [20 x ptr], ptr @_ZN4Type10_zero_typeE, i64 0, i64 %17
  %19 = load ptr, ptr %18, align 8
  %20 = icmp eq ptr %5, %19
  store i1 %20, ptr %2, align 1
  br label %21

21:                                               ; preds = %15, %14
  %22 = load i1, ptr %2, align 1
  ret i1 %22
}

; Function Attrs: mustprogress nounwind uwtable
define hidden noundef ptr @_ZN11PhaseValues7longconEl(ptr noundef nonnull align 8 dereferenceable(2400) %0, i64 noundef %1) #1 align 2 {
  %3 = alloca ptr, align 8
  %4 = alloca ptr, align 8
  %5 = alloca i64, align 8
  %6 = alloca ptr, align 8
  %7 = alloca ptr, align 8
  store ptr %0, ptr %4, align 8
  store i64 %1, ptr %5, align 8
  %8 = load ptr, ptr %4, align 8
  %9 = load i64, ptr %5, align 8
  %10 = icmp sge i64 %9, -8
  br i1 %10, label %11, label %29

11:                                               ; preds = %2
  %12 = load i64, ptr %5, align 8
  %13 = icmp sle i64 %12, 128
  br i1 %13, label %14, label %29

14:                                               ; preds = %11
  %15 = getelementptr inbounds %class.PhaseValues, ptr %8, i32 0, i32 5
  %16 = load i64, ptr %5, align 8
  %17 = sub nsw i64 %16, -8
  %18 = getelementptr inbounds [137 x ptr], ptr %15, i64 0, i64 %17
  %19 = load ptr, ptr %18, align 8
  store ptr %19, ptr %6, align 8
  %20 = load ptr, ptr %6, align 8
  %21 = icmp ne ptr %20, null
  br i1 %21, label %22, label %28

22:                                               ; preds = %14
  %23 = load ptr, ptr %6, align 8
  %24 = call noundef ptr @_ZNK4Node2inEj(ptr noundef nonnull align 8 dereferenceable(52) %23, i32 noundef 0)
  %25 = icmp ne ptr %24, null
  br i1 %25, label %26, label %28

26:                                               ; preds = %22
  %27 = load ptr, ptr %6, align 8
  store ptr %27, ptr %3, align 8
  br label %46

28:                                               ; preds = %22, %14
  br label %29

29:                                               ; preds = %28, %11, %2
  %30 = load i64, ptr %5, align 8
  %31 = call noundef ptr @_ZN8TypeLong4makeEl(i64 noundef %30)
  %32 = call noundef ptr @_ZN11PhaseValues16uncached_makeconEPK4Type(ptr noundef nonnull align 8 dereferenceable(2400) %8, ptr noundef %31)
  store ptr %32, ptr %7, align 8
  %33 = load i64, ptr %5, align 8
  %34 = icmp sge i64 %33, -8
  br i1 %34, label %35, label %44

35:                                               ; preds = %29
  %36 = load i64, ptr %5, align 8
  %37 = icmp sle i64 %36, 128
  br i1 %37, label %38, label %44

38:                                               ; preds = %35
  %39 = load ptr, ptr %7, align 8
  %40 = getelementptr inbounds %class.PhaseValues, ptr %8, i32 0, i32 5
  %41 = load i64, ptr %5, align 8
  %42 = sub nsw i64 %41, -8
  %43 = getelementptr inbounds [137 x ptr], ptr %40, i64 0, i64 %42
  store ptr %39, ptr %43, align 8
  br label %44

44:                                               ; preds = %38, %35, %29
  %45 = load ptr, ptr %7, align 8
  store ptr %45, ptr %3, align 8
  br label %46

46:                                               ; preds = %44, %26
  %47 = load ptr, ptr %3, align 8
  ret ptr %47
}

; Function Attrs: mustprogress nounwind uwtable
define linkonce_odr hidden noundef i64 @_ZNK8TypeLong7get_conEv(ptr noundef nonnull align 8 dereferenceable(40) %0) #1 comdat align 2 {
  %2 = alloca ptr, align 8
  store ptr %0, ptr %2, align 8
  %3 = load ptr, ptr %2, align 8
  %4 = getelementptr inbounds %class.TypeLong, ptr %3, i32 0, i32 1
  %5 = load i64, ptr %4, align 8
  ret i64 %5
}

; Function Attrs: mustprogress nounwind uwtable
define linkonce_odr hidden noundef ptr @_ZNK4Type7is_longEv(ptr noundef nonnull align 8 dereferenceable(20) %0) #1 comdat align 2 {
  %2 = alloca ptr, align 8
  store ptr %0, ptr %2, align 8
  %3 = load ptr, ptr %2, align 8
  ret ptr %3
}

; Function Attrs: mustprogress nounwind uwtable
define hidden noundef ptr @_ZN11PhaseValues6intconEi(ptr noundef nonnull align 8 dereferenceable(2400) %0, i32 noundef %1) #1 align 2 {
  %3 = alloca ptr, align 8
  %4 = alloca ptr, align 8
  %5 = alloca i32, align 4
  %6 = alloca ptr, align 8
  %7 = alloca ptr, align 8
  store ptr %0, ptr %4, align 8
  store i32 %1, ptr %5, align 4
  %8 = load ptr, ptr %4, align 8
  %9 = load i32, ptr %5, align 4
  %10 = icmp sge i32 %9, -8
  br i1 %10, label %11, label %30

11:                                               ; preds = %2
  %12 = load i32, ptr %5, align 4
  %13 = icmp sle i32 %12, 128
  br i1 %13, label %14, label %30

14:                                               ; preds = %11
  %15 = getelementptr inbounds %class.PhaseValues, ptr %8, i32 0, i32 4
  %16 = load i32, ptr %5, align 4
  %17 = sub nsw i32 %16, -8
  %18 = sext i32 %17 to i64
  %19 = getelementptr inbounds [137 x ptr], ptr %15, i64 0, i64 %18
  %20 = load ptr, ptr %19, align 8
  store ptr %20, ptr %6, align 8
  %21 = load ptr, ptr %6, align 8
  %22 = icmp ne ptr %21, null
  br i1 %22, label %23, label %29

23:                                               ; preds = %14
  %24 = load ptr, ptr %6, align 8
  %25 = call noundef ptr @_ZNK4Node2inEj(ptr noundef nonnull align 8 dereferenceable(52) %24, i32 noundef 0)
  %26 = icmp ne ptr %25, null
  br i1 %26, label %27, label %29

27:                                               ; preds = %23
  %28 = load ptr, ptr %6, align 8
  store ptr %28, ptr %3, align 8
  br label %48

29:                                               ; preds = %23, %14
  br label %30

30:                                               ; preds = %29, %11, %2
  %31 = load i32, ptr %5, align 4
  %32 = call noundef ptr @_ZN7TypeInt4makeEi(i32 noundef %31)
  %33 = call noundef ptr @_ZN11PhaseValues16uncached_makeconEPK4Type(ptr noundef nonnull align 8 dereferenceable(2400) %8, ptr noundef %32)
  store ptr %33, ptr %7, align 8
  %34 = load i32, ptr %5, align 4
  %35 = icmp sge i32 %34, -8
  br i1 %35, label %36, label %46

36:                                               ; preds = %30
  %37 = load i32, ptr %5, align 4
  %38 = icmp sle i32 %37, 128
  br i1 %38, label %39, label %46

39:                                               ; preds = %36
  %40 = load ptr, ptr %7, align 8
  %41 = getelementptr inbounds %class.PhaseValues, ptr %8, i32 0, i32 4
  %42 = load i32, ptr %5, align 4
  %43 = sub nsw i32 %42, -8
  %44 = sext i32 %43 to i64
  %45 = getelementptr inbounds [137 x ptr], ptr %41, i64 0, i64 %44
  store ptr %40, ptr %45, align 8
  br label %46

46:                                               ; preds = %39, %36, %30
  %47 = load ptr, ptr %7, align 8
  store ptr %47, ptr %3, align 8
  br label %48

48:                                               ; preds = %46, %27
  %49 = load ptr, ptr %3, align 8
  ret ptr %49
}

; Function Attrs: mustprogress nounwind uwtable
define linkonce_odr hidden noundef i32 @_ZNK7TypeInt7get_conEv(ptr noundef nonnull align 8 dereferenceable(32) %0) #1 comdat align 2 {
  %2 = alloca ptr, align 8
  store ptr %0, ptr %2, align 8
  %3 = load ptr, ptr %2, align 8
  %4 = getelementptr inbounds %class.TypeInt, ptr %3, i32 0, i32 1
  %5 = load i32, ptr %4, align 8
  ret i32 %5
}

; Function Attrs: mustprogress nounwind uwtable
define linkonce_odr hidden noundef ptr @_ZNK4Type6is_intEv(ptr noundef nonnull align 8 dereferenceable(20) %0) #1 comdat align 2 {
  %2 = alloca ptr, align 8
  store ptr %0, ptr %2, align 8
  %3 = load ptr, ptr %2, align 8
  ret ptr %3
}

; Function Attrs: mustprogress nounwind uwtable
define linkonce_odr hidden noundef ptr @_ZNK7Compile3topEv(ptr noundef nonnull align 8 dereferenceable(2316) %0) #1 comdat align 2 {
  %2 = alloca ptr, align 8
  store ptr %0, ptr %2, align 8
  %3 = load ptr, ptr %2, align 8
  %4 = getelementptr inbounds %class.Compile, ptr %3, i32 0, i32 78
  %5 = load ptr, ptr %4, align 8
  ret ptr %5
}

; Function Attrs: mustprogress nounwind uwtable
define linkonce_odr hidden noundef i32 @_ZNK4Type4baseEv(ptr noundef nonnull align 8 dereferenceable(20) %0) #1 comdat align 2 {
  %2 = alloca ptr, align 8
  store ptr %0, ptr %2, align 8
  %3 = load ptr, ptr %2, align 8
  %4 = getelementptr inbounds %class.Type, ptr %3, i32 0, i32 2
  %5 = load i32, ptr %4, align 8
  ret i32 %5
}

; Function Attrs: mustprogress nounwind uwtable
define hidden noundef ptr @_ZN11PhaseValues7makeconEPK4Type(ptr noundef nonnull align 8 dereferenceable(2400) %0, ptr noundef %1) #1 align 2 {
  %3 = alloca ptr, align 8
  %4 = alloca ptr, align 8
  %5 = alloca ptr, align 8
  store ptr %0, ptr %4, align 8
  store ptr %1, ptr %5, align 8
  %6 = load ptr, ptr %4, align 8
  %7 = load ptr, ptr %5, align 8
  %8 = call noundef i32 @_ZNK4Type4baseEv(ptr noundef nonnull align 8 dereferenceable(20) %7)
  switch i32 %8, label %24 [
    i32 5, label %9
    i32 2, label %9
    i32 3, label %14
    i32 4, label %19
  ]

9:                                                ; preds = %2, %2
  %10 = getelementptr inbounds i8, ptr %6, i64 8
  %11 = getelementptr inbounds %class.Phase, ptr %10, i32 0, i32 1
  %12 = load ptr, ptr %11, align 8
  %13 = call noundef ptr @_ZNK7Compile3topEv(ptr noundef nonnull align 8 dereferenceable(2316) %12)
  store ptr %13, ptr %3, align 8
  br label %35

14:                                               ; preds = %2
  %15 = load ptr, ptr %5, align 8
  %16 = call noundef ptr @_ZNK4Type6is_intEv(ptr noundef nonnull align 8 dereferenceable(20) %15)
  %17 = call noundef i32 @_ZNK7TypeInt7get_conEv(ptr noundef nonnull align 8 dereferenceable(32) %16)
  %18 = call noundef ptr @_ZN11PhaseValues6intconEi(ptr noundef nonnull align 8 dereferenceable(2400) %6, i32 noundef %17)
  store ptr %18, ptr %3, align 8
  br label %35

19:                                               ; preds = %2
  %20 = load ptr, ptr %5, align 8
  %21 = call noundef ptr @_ZNK4Type7is_longEv(ptr noundef nonnull align 8 dereferenceable(20) %20)
  %22 = call noundef i64 @_ZNK8TypeLong7get_conEv(ptr noundef nonnull align 8 dereferenceable(40) %21)
  %23 = call noundef ptr @_ZN11PhaseValues7longconEl(ptr noundef nonnull align 8 dereferenceable(2400) %6, i64 noundef %22)
  store ptr %23, ptr %3, align 8
  br label %35

24:                                               ; preds = %2
  br label %25

25:                                               ; preds = %24
  %26 = load ptr, ptr %5, align 8
  %27 = call noundef zeroext i1 @_ZNK4Type12is_zero_typeEv(ptr noundef nonnull align 8 dereferenceable(20) %26)
  br i1 %27, label %28, label %32

28:                                               ; preds = %25
  %29 = load ptr, ptr %5, align 8
  %30 = call noundef zeroext i8 @_ZNK4Type10basic_typeEv(ptr noundef nonnull align 8 dereferenceable(20) %29)
  %31 = call noundef ptr @_ZN11PhaseValues7zeroconE9BasicType(ptr noundef nonnull align 8 dereferenceable(2400) %6, i8 noundef zeroext %30)
  store ptr %31, ptr %3, align 8
  br label %35

32:                                               ; preds = %25
  %33 = load ptr, ptr %5, align 8
  %34 = call noundef ptr @_ZN11PhaseValues16uncached_makeconEPK4Type(ptr noundef nonnull align 8 dereferenceable(2400) %6, ptr noundef %33)
  store ptr %34, ptr %3, align 8
  br label %35

35:                                               ; preds = %32, %28, %19, %14, %9
  %36 = load ptr, ptr %3, align 8
  ret ptr %36
}