; Function Attrs: mustprogress nounwind uwtable
define hidden noundef ptr @_ZN11PhaseValues7makeconEPK4Type(ptr noundef nonnull align 8 dereferenceable(2400) %0, ptr noundef %1) local_unnamed_addr #0 align 2 {
  %3 = getelementptr inbounds i8, ptr %1, i64 16
  %4 = load i32, ptr %3, align 8
  switch i32 %4, label %48 [
    i32 5, label %5
    i32 2, label %5
    i32 3, label %10
    i32 4, label %30
  ]

5:                                                ; preds = %2, %2
  %6 = getelementptr inbounds i8, ptr %0, i64 16
  %7 = load ptr, ptr %6, align 8
  %8 = getelementptr inbounds i8, ptr %7, i64 744
  %9 = load ptr, ptr %8, align 8
  br label %_ZN11PhaseValues6intconEi.exit

10:                                               ; preds = %2
  %11 = getelementptr inbounds i8, ptr %1, i64 24
  %12 = load i32, ptr %11, align 8
  %13 = add i32 %12, 8
  %or.cond.i = icmp ult i32 %13, 137
  br i1 %or.cond.i, label %14, label %23

14:                                               ; preds = %10
  %15 = getelementptr inbounds i8, ptr %0, i64 48
  %16 = zext nneg i32 %13 to i64
  %17 = getelementptr inbounds [137 x ptr], ptr %15, i64 0, i64 %16
  %18 = load ptr, ptr %17, align 8
  %.not.i = icmp eq ptr %18, null
  br i1 %.not.i, label %23, label %19

19:                                               ; preds = %14
  %20 = getelementptr inbounds i8, ptr %18, i64 8
  %21 = load ptr, ptr %20, align 8
  %22 = load ptr, ptr %21, align 8
  %.not18.i = icmp eq ptr %22, null
  br i1 %.not18.i, label %23, label %_ZN11PhaseValues6intconEi.exit

23:                                               ; preds = %19, %14, %10
  %24 = tail call noundef ptr @_ZN7TypeInt4makeEi(i32 noundef %12) #16
  %25 = tail call noundef ptr @_ZN11PhaseValues16uncached_makeconEPK4Type(ptr noundef nonnull align 8 dereferenceable(2400) %0, ptr noundef %24)
  br i1 %or.cond.i, label %26, label %_ZN11PhaseValues6intconEi.exit

26:                                               ; preds = %23
  %27 = getelementptr inbounds i8, ptr %0, i64 48
  %28 = zext nneg i32 %13 to i64
  %29 = getelementptr inbounds [137 x ptr], ptr %27, i64 0, i64 %28
  store ptr %25, ptr %29, align 8
  br label %_ZN11PhaseValues6intconEi.exit

30:                                               ; preds = %2
  %31 = getelementptr inbounds i8, ptr %1, i64 24
  %32 = load i64, ptr %31, align 8
  %33 = add i64 %32, 8
  %or.cond.i8 = icmp ult i64 %33, 137
  br i1 %or.cond.i8, label %34, label %42

34:                                               ; preds = %30
  %35 = getelementptr inbounds i8, ptr %0, i64 1144
  %36 = getelementptr inbounds [137 x ptr], ptr %35, i64 0, i64 %33
  %37 = load ptr, ptr %36, align 8
  %.not.i10 = icmp eq ptr %37, null
  br i1 %.not.i10, label %42, label %38

38:                                               ; preds = %34
  %39 = getelementptr inbounds i8, ptr %37, i64 8
  %40 = load ptr, ptr %39, align 8
  %41 = load ptr, ptr %40, align 8
  %.not18.i11 = icmp eq ptr %41, null
  br i1 %.not18.i11, label %42, label %_ZN11PhaseValues6intconEi.exit

42:                                               ; preds = %38, %34, %30
  %43 = tail call noundef ptr @_ZN8TypeLong4makeEl(i64 noundef %32) #16
  %44 = tail call noundef ptr @_ZN11PhaseValues16uncached_makeconEPK4Type(ptr noundef nonnull align 8 dereferenceable(2400) %0, ptr noundef %43)
  br i1 %or.cond.i8, label %45, label %_ZN11PhaseValues6intconEi.exit

45:                                               ; preds = %42
  %46 = getelementptr inbounds i8, ptr %0, i64 1144
  %47 = getelementptr inbounds [137 x ptr], ptr %46, i64 0, i64 %33
  store ptr %44, ptr %47, align 8
  br label %_ZN11PhaseValues6intconEi.exit

48:                                               ; preds = %2
  %49 = zext i32 %4 to i64
  %50 = getelementptr inbounds [0 x %"struct.Type::TypeInfo"], ptr @_ZN4Type10_type_infoE, i64 0, i64 %49, i32 1
  %51 = load i8, ptr %50, align 4
  %52 = icmp eq i8 %51, 14
  %53 = icmp ugt i8 %51, 18
  %or.cond.i12 = or i1 %52, %53
  br i1 %or.cond.i12, label %_ZNK4Type12is_zero_typeEv.exit.thread, label %_ZNK4Type12is_zero_typeEv.exit

_ZNK4Type12is_zero_typeEv.exit:                   ; preds = %48
  %54 = zext nneg i8 %51 to i64
  %55 = getelementptr inbounds [20 x ptr], ptr @_ZN4Type10_zero_typeE, i64 0, i64 %54
  %56 = load ptr, ptr %55, align 8
  %57 = icmp eq ptr %56, %1
  br i1 %57, label %58, label %_ZNK4Type12is_zero_typeEv.exit.thread

58:                                               ; preds = %_ZNK4Type12is_zero_typeEv.exit
  %59 = getelementptr inbounds i8, ptr %0, i64 2240
  %60 = getelementptr inbounds [20 x ptr], ptr %59, i64 0, i64 %54
  %61 = load ptr, ptr %60, align 8
  %.not.i14 = icmp eq ptr %61, null
  br i1 %.not.i14, label %66, label %62

62:                                               ; preds = %58
  %63 = getelementptr inbounds i8, ptr %61, i64 8
  %64 = load ptr, ptr %63, align 8
  %65 = load ptr, ptr %64, align 8
  %.not10.i = icmp eq ptr %65, null
  br i1 %.not10.i, label %66, label %_ZN11PhaseValues6intconEi.exit

66:                                               ; preds = %62, %58
  %67 = tail call noundef ptr @_ZN11PhaseValues16uncached_makeconEPK4Type(ptr noundef nonnull align 8 dereferenceable(2400) %0, ptr noundef %56)
  store ptr %67, ptr %60, align 8
  br label %_ZN11PhaseValues6intconEi.exit

_ZNK4Type12is_zero_typeEv.exit.thread:            ; preds = %48, %_ZNK4Type12is_zero_typeEv.exit
  %68 = tail call noundef ptr @_ZN11PhaseValues16uncached_makeconEPK4Type(ptr noundef nonnull align 8 dereferenceable(2400) %0, ptr noundef nonnull %1)
  br label %_ZN11PhaseValues6intconEi.exit

_ZN11PhaseValues6intconEi.exit:                   ; preds = %66, %62, %45, %42, %38, %26, %23, %19, %_ZNK4Type12is_zero_typeEv.exit.thread, %5
  %.0 = phi ptr [ %68, %_ZNK4Type12is_zero_typeEv.exit.thread ], [ %9, %5 ], [ %18, %19 ], [ %25, %26 ], [ %25, %23 ], [ %37, %38 ], [ %44, %45 ], [ %44, %42 ], [ %67, %66 ], [ %61, %62 ]
  ret ptr %.0
}